target datalayout = "e-m:e-p270:32:32-p271:32:32-p272:64:64-i64:64-i128:128-f80:128-n8:16:32:64-S128"
target triple = "x86_64-pc-linux-gnu"

%struct.Curl_cftype = type { ptr, i32, i32, ptr, ptr, ptr, ptr, ptr, ptr, ptr, ptr, ptr, ptr, ptr, ptr, ptr }
%struct.Curl_cfilter = type { ptr, ptr, ptr, ptr, i32, i8 }
%struct.Curl_easy = type { i32, i64, i64, ptr, %struct.Curl_llist_node, %struct.Curl_llist_node, i32, i32, %struct.Curl_message, %struct.easy_pollset, %struct.Names, ptr, ptr, ptr, %struct.SingleRequest, %struct.UserDefined, ptr, ptr, %struct.Progress, %struct.UrlState, ptr, %struct.PureInfo, %struct.curl_tlssessioninfo }
%struct.Curl_llist_node = type { ptr, ptr, ptr, ptr }
%struct.Curl_message = type { %struct.Curl_llist_node, %struct.CURLMsg }
%struct.CURLMsg = type { i32, ptr, %union.anon.0 }
%union.anon.0 = type { ptr }
%struct.easy_pollset = type { [5 x i32], i32, [5 x i8] }
%struct.Names = type { ptr, i32 }
%struct.SingleRequest = type <{ i64, i64, i64, i64, %struct.curltime, i32, i32, i32, i32, i64, i32, i32, i32, i32, ptr, ptr, %struct.bufq, i64, i64, ptr, ptr, %union.anon.1, ptr, i8, i32, [3 x i8] }>
%struct.curltime = type { i64, i32 }
%struct.bufq = type { ptr, ptr, ptr, ptr, i64, i64, i64, i32 }
%union.anon.1 = type { ptr }
%struct.UserDefined = type <{ ptr, ptr, ptr, ptr, ptr, ptr, i16, [6 x i8], i64, i64, i64, ptr, ptr, i64, i16, i16, [4 x i8], ptr, ptr, ptr, ptr, ptr, ptr, ptr, ptr, ptr, ptr, ptr, ptr, ptr, ptr, ptr, ptr, ptr, ptr, ptr, ptr, ptr, ptr, ptr, i32, i32, i32, i32, i32, [4 x i8], i64, i64, i64, i64, i64, i64, i64, i64, ptr, ptr, %struct.curl_mimepart, ptr, ptr, i64, i8, i8, i8, [5 x i8], %struct.ssl_config_data, %struct.ssl_config_data, ptr, i16, i8, i8, [4 x i8], %struct.ssl_general_config, i32, i32, i32, [4 x i8], ptr, ptr, i8, [7 x i8], i64, i8, i8, i8, i8, i32, ptr, ptr, ptr, i8, i8, [2 x i8], i32, [63 x ptr], [8 x ptr], i32, i32, i32, [4 x i8], ptr, ptr, ptr, ptr, ptr, i8, [3 x i8], i32, i32, i32, i64, %struct.Curl_data_priority, ptr, ptr, i64, ptr, i64, ptr, ptr, ptr, i8, [3 x i8], i32, i8, i8, i64, [6 x i8] }>
%struct.curl_mimepart = type { ptr, ptr, i32, i32, ptr, ptr, ptr, ptr, ptr, ptr, ptr, ptr, ptr, ptr, ptr, i64, %struct.mime_state, ptr, %struct.mime_encoder_state, i64 }
%struct.mime_state = type { i32, ptr, i64 }
%struct.mime_encoder_state = type { i64, i64, i64, [256 x i8] }
%struct.ssl_config_data = type { %struct.ssl_primary_config, i64, ptr, ptr, ptr, ptr, ptr, ptr, ptr, i16 }
%struct.ssl_primary_config = type { ptr, ptr, ptr, ptr, ptr, ptr, ptr, ptr, ptr, ptr, ptr, ptr, i8, i32, i8, i8 }
%struct.ssl_general_config = type { i64, i32 }
%struct.Curl_data_priority = type { ptr, ptr, i32, i8 }
%struct.Progress = type { i64, %struct.pgrs_dir, %struct.pgrs_dir, i64, i64, i32, i32, i64, i64, i64, i64, i64, i64, i64, i64, i64, %struct.curltime, %struct.curltime, %struct.curltime, %struct.curltime, [6 x i64], [6 x %struct.curltime], i32, i8 }
%struct.pgrs_dir = type { i64, i64, i64, %struct.pgrs_measure }
%struct.pgrs_measure = type { %struct.curltime, i64 }
%struct.UrlState = type { %struct.curltime, i64, i64, %struct.dynbuf, ptr, i64, ptr, i32, i32, i32, ptr, i64, i32, i64, i32, ptr, %struct.digestdata, %struct.digestdata, %struct.auth, %struct.auth, %struct.Curl_async, ptr, %struct.curltime, %struct.Curl_tree, %struct.Curl_llist, [15 x %struct.time_node], ptr, ptr, i64, i64, %struct.Curl_data_priority, ptr, ptr, ptr, %struct.urlpieces, ptr, ptr, ptr, ptr, ptr, i64, %struct.dynbuf, %struct.Curl_llist, [2 x %struct.curl_header], ptr, i32, ptr, ptr, %struct.store_netrc, %struct.dynamically_allocated_data, i8, i8, i8, i8, i32 }
%struct.digestdata = type { ptr, ptr, ptr, ptr, ptr, ptr, i32, i8, i8 }
%struct.auth = type { i64, i64, i64, i8 }
%struct.Curl_async = type { ptr, ptr, ptr, ptr, i32, i32, i8 }
%struct.Curl_tree = type { ptr, ptr, ptr, ptr, %struct.curltime, ptr }
%struct.time_node = type { %struct.Curl_llist_node, %struct.curltime, i32 }
%struct.urlpieces = type { ptr, ptr, ptr, ptr, ptr, ptr, ptr, ptr }
%struct.dynbuf = type { ptr, i64, i64, i64 }
%struct.Curl_llist = type { ptr, ptr, ptr, i64 }
%struct.curl_header = type { ptr, ptr, i64, i64, i32, ptr }
%struct.store_netrc = type { %struct.dynbuf, ptr, i8 }
%struct.dynamically_allocated_data = type { ptr, ptr, ptr, ptr, ptr, ptr, ptr, ptr, ptr, ptr, ptr, ptr, ptr }
%struct.PureInfo = type { i32, i32, i32, i64, i64, i64, i64, i64, ptr, ptr, i64, i32, %struct.ip_quadruple, i32, ptr, i32, %struct.curl_certinfo, i32, i8 }
%struct.ip_quadruple = type { [46 x i8], [46 x i8], i32, i32 }
%struct.curl_certinfo = type { i32, ptr }
%struct.curl_tlssessioninfo = type { i32, ptr }
%struct.curl_trc_feat = type { ptr, i32 }
%struct.cf_hc_ctx = type { i32, ptr, %struct.curltime, i32, %struct.cf_hc_baller, %struct.cf_hc_baller, i32, i32 }
%struct.cf_hc_baller = type { ptr, ptr, i32, %struct.curltime, i32, i8 }

@.str.12 = private unnamed_addr constant [6 x i8] c"close\00", align 1

; Function Attrs: nounwind uwtable
define internal void @cf_hc_baller_reset(ptr noundef %0, ptr noundef %1) #0 {
  %3 = alloca ptr, align 8
  %4 = alloca ptr, align 8
  store ptr %0, ptr %3, align 8, !tbaa !119
  store ptr %1, ptr %4, align 8, !tbaa !9
  %5 = load ptr, ptr %3, align 8, !tbaa !119
  %6 = getelementptr inbounds nuw %struct.cf_hc_baller, ptr %5, i32 0, i32 1
  %7 = load ptr, ptr %6, align 8, !tbaa !121
  %8 = icmp ne ptr %7, null
  br i1 %8, label %9, label %19

9:                                                ; preds = %2
  %10 = load ptr, ptr %3, align 8, !tbaa !119
  %11 = getelementptr inbounds nuw %struct.cf_hc_baller, ptr %10, i32 0, i32 1
  %12 = load ptr, ptr %11, align 8, !tbaa !121
  %13 = load ptr, ptr %4, align 8, !tbaa !9
  call void @Curl_conn_cf_close(ptr noundef %12, ptr noundef %13)
  %14 = load ptr, ptr %3, align 8, !tbaa !119
  %15 = getelementptr inbounds nuw %struct.cf_hc_baller, ptr %14, i32 0, i32 1
  %16 = load ptr, ptr %4, align 8, !tbaa !9
  call void @Curl_conn_cf_discard_chain(ptr noundef %15, ptr noundef %16)
  %17 = load ptr, ptr %3, align 8, !tbaa !119
  %18 = getelementptr inbounds nuw %struct.cf_hc_baller, ptr %17, i32 0, i32 1
  store ptr null, ptr %18, align 8, !tbaa !121
  br label %19

19:                                               ; preds = %9, %2
  %20 = load ptr, ptr %3, align 8, !tbaa !119
  %21 = getelementptr inbounds nuw %struct.cf_hc_baller, ptr %20, i32 0, i32 2
  store i32 0, ptr %21, align 8, !tbaa !123
  %22 = load ptr, ptr %3, align 8, !tbaa !119
  %23 = getelementptr inbounds nuw %struct.cf_hc_baller, ptr %22, i32 0, i32 4
  store i32 -1, ptr %23, align 8, !tbaa !143
  ret void
}

; Function Attrs: nounwind uwtable
define internal void @cf_hc_reset(ptr noundef %0, ptr noundef %1) #0 {
  %3 = alloca ptr, align 8
  %4 = alloca ptr, align 8
  %5 = alloca ptr, align 8
  store ptr %0, ptr %3, align 8, !tbaa !4
  store ptr %1, ptr %4, align 8, !tbaa !9
  call void @llvm.lifetime.start.p0(i64 8, ptr %5) #5
  %6 = load ptr, ptr %3, align 8, !tbaa !4
  %7 = getelementptr inbounds nuw %struct.Curl_cfilter, ptr %6, i32 0, i32 2
  %8 = load ptr, ptr %7, align 8, !tbaa !11
  store ptr %8, ptr %5, align 8, !tbaa !16
  %9 = load ptr, ptr %5, align 8, !tbaa !16
  %10 = icmp ne ptr %9, null
  br i1 %10, label %11, label %35

11:                                               ; preds = %2
  %12 = load ptr, ptr %5, align 8, !tbaa !16
  %13 = getelementptr inbounds nuw %struct.cf_hc_ctx, ptr %12, i32 0, i32 4
  %14 = load ptr, ptr %4, align 8, !tbaa !9
  call void @cf_hc_baller_reset(ptr noundef %13, ptr noundef %14)
  %15 = load ptr, ptr %5, align 8, !tbaa !16
  %16 = getelementptr inbounds nuw %struct.cf_hc_ctx, ptr %15, i32 0, i32 5
  %17 = load ptr, ptr %4, align 8, !tbaa !9
  call void @cf_hc_baller_reset(ptr noundef %16, ptr noundef %17)
  %18 = load ptr, ptr %5, align 8, !tbaa !16
  %19 = getelementptr inbounds nuw %struct.cf_hc_ctx, ptr %18, i32 0, i32 0
  store i32 0, ptr %19, align 8, !tbaa !98
  %20 = load ptr, ptr %5, align 8, !tbaa !16
  %21 = getelementptr inbounds nuw %struct.cf_hc_ctx, ptr %20, i32 0, i32 3
  store i32 0, ptr %21, align 8, !tbaa !116
  %22 = load ptr, ptr %4, align 8, !tbaa !9
  %23 = getelementptr inbounds nuw %struct.Curl_easy, ptr %22, i32 0, i32 15
  %24 = getelementptr inbounds nuw %struct.UserDefined, ptr %23, i32 0, i32 42
  %25 = load i32, ptr %24, align 8, !tbaa !141
  %26 = load ptr, ptr %5, align 8, !tbaa !16
  %27 = getelementptr inbounds nuw %struct.cf_hc_ctx, ptr %26, i32 0, i32 7
  store i32 %25, ptr %27, align 4, !tbaa !142
  %28 = load ptr, ptr %4, align 8, !tbaa !9
  %29 = getelementptr inbounds nuw %struct.Curl_easy, ptr %28, i32 0, i32 15
  %30 = getelementptr inbounds nuw %struct.UserDefined, ptr %29, i32 0, i32 42
  %31 = load i32, ptr %30, align 8, !tbaa !141
  %32 = udiv i32 %31, 2
  %33 = load ptr, ptr %5, align 8, !tbaa !16
  %34 = getelementptr inbounds nuw %struct.cf_hc_ctx, ptr %33, i32 0, i32 6
  store i32 %32, ptr %34, align 8, !tbaa !101
  br label %35

35:                                               ; preds = %11, %2
  call void @llvm.lifetime.end.p0(i64 8, ptr %5) #5
  ret void
}

; Function Attrs: nounwind uwtable
define internal void @cf_hc_close(ptr noundef %0, ptr noundef %1) #0 {
  %3 = alloca ptr, align 8
  %4 = alloca ptr, align 8
  store ptr %0, ptr %3, align 8, !tbaa !4
  store ptr %1, ptr %4, align 8, !tbaa !9
  br label %5

5:                                                ; preds = %2
  %6 = load ptr, ptr %4, align 8, !tbaa !9
  %7 = icmp ne ptr %6, null
  br i1 %7, label %8, label %44

8:                                                ; preds = %5
  %9 = load ptr, ptr %4, align 8, !tbaa !9
  %10 = getelementptr inbounds nuw %struct.Curl_easy, ptr %9, i32 0, i32 15
  %11 = getelementptr inbounds nuw %struct.UserDefined, ptr %10, i32 0, i32 124
  %12 = load i64, ptr %11, align 2
  %13 = lshr i64 %12, 27
  %14 = and i64 %13, 1
  %15 = trunc i64 %14 to i32
  %16 = icmp ne i32 %15, 0
  br i1 %16, label %17, label %44

17:                                               ; preds = %8
  %18 = load ptr, ptr %4, align 8, !tbaa !9
  %19 = getelementptr inbounds nuw %struct.Curl_easy, ptr %18, i32 0, i32 19
  %20 = getelementptr inbounds nuw %struct.UrlState, ptr %19, i32 0, i32 47
  %21 = load ptr, ptr %20, align 8, !tbaa !18
  %22 = icmp ne ptr %21, null
  br i1 %22, label %23, label %31

23:                                               ; preds = %17
  %24 = load ptr, ptr %4, align 8, !tbaa !9
  %25 = getelementptr inbounds nuw %struct.Curl_easy, ptr %24, i32 0, i32 19
  %26 = getelementptr inbounds nuw %struct.UrlState, ptr %25, i32 0, i32 47
  %27 = load ptr, ptr %26, align 8, !tbaa !18
  %28 = getelementptr inbounds nuw %struct.curl_trc_feat, ptr %27, i32 0, i32 1
  %29 = load i32, ptr %28, align 8, !tbaa !85
  %30 = icmp sge i32 %29, 1
  br i1 %30, label %31, label %44

31:                                               ; preds = %23, %17
  %32 = load ptr, ptr %3, align 8, !tbaa !4
  %33 = icmp ne ptr %32, null
  br i1 %33, label %34, label %44

34:                                               ; preds = %31
  %35 = load ptr, ptr %3, align 8, !tbaa !4
  %36 = getelementptr inbounds nuw %struct.Curl_cfilter, ptr %35, i32 0, i32 0
  %37 = load ptr, ptr %36, align 8, !tbaa !87
  %38 = getelementptr inbounds nuw %struct.Curl_cftype, ptr %37, i32 0, i32 2
  %39 = load i32, ptr %38, align 4, !tbaa !88
  %40 = icmp sge i32 %39, 1
  br i1 %40, label %41, label %44

41:                                               ; preds = %34
  %42 = load ptr, ptr %4, align 8, !tbaa !9
  %43 = load ptr, ptr %3, align 8, !tbaa !4
  call void (ptr, ptr, ptr, ...) @Curl_trc_cf_infof(ptr noundef %42, ptr noundef %43, ptr noundef @.str.12)
  br label %44

44:                                               ; preds = %41, %34, %31, %23, %8, %5
  br label %45

45:                                               ; preds = %44
  %46 = load ptr, ptr %3, align 8, !tbaa !4
  %47 = load ptr, ptr %4, align 8, !tbaa !9
  call void @cf_hc_reset(ptr noundef %46, ptr noundef %47)
  %48 = load ptr, ptr %3, align 8, !tbaa !4
  %49 = getelementptr inbounds nuw %struct.Curl_cfilter, ptr %48, i32 0, i32 5
  %50 = load i8, ptr %49, align 4
  %51 = and i8 %50, -2
  %52 = or i8 %51, 0
  store i8 %52, ptr %49, align 4
  %53 = load ptr, ptr %3, align 8, !tbaa !4
  %54 = getelementptr inbounds nuw %struct.Curl_cfilter, ptr %53, i32 0, i32 1
  %55 = load ptr, ptr %54, align 8, !tbaa !117
  %56 = icmp ne ptr %55, null
  br i1 %56, label %57, label %72

57:                                               ; preds = %45
  %58 = load ptr, ptr %3, align 8, !tbaa !4
  %59 = getelementptr inbounds nuw %struct.Curl_cfilter, ptr %58, i32 0, i32 1
  %60 = load ptr, ptr %59, align 8, !tbaa !117
  %61 = getelementptr inbounds nuw %struct.Curl_cfilter, ptr %60, i32 0, i32 0
  %62 = load ptr, ptr %61, align 8, !tbaa !87
  %63 = getelementptr inbounds nuw %struct.Curl_cftype, ptr %62, i32 0, i32 5
  %64 = load ptr, ptr %63, align 8, !tbaa !118
  %65 = load ptr, ptr %3, align 8, !tbaa !4
  %66 = getelementptr inbounds nuw %struct.Curl_cfilter, ptr %65, i32 0, i32 1
  %67 = load ptr, ptr %66, align 8, !tbaa !117
  %68 = load ptr, ptr %4, align 8, !tbaa !9
  call void %64(ptr noundef %67, ptr noundef %68)
  %69 = load ptr, ptr %3, align 8, !tbaa !4
  %70 = getelementptr inbounds nuw %struct.Curl_cfilter, ptr %69, i32 0, i32 1
  %71 = load ptr, ptr %4, align 8, !tbaa !9
  call void @Curl_conn_cf_discard_chain(ptr noundef %70, ptr noundef %71)
  br label %72

72:                                               ; preds = %57, %45
  ret void
}