; Function Attrs: nounwind uwtable
define internal void @cf_hc_close(ptr noundef %0, ptr noundef %1) #0 {
  %.not = icmp eq ptr %1, null
  br i1 %.not, label %22, label %3

3:                                                ; preds = %2
  %4 = getelementptr inbounds nuw i8, ptr %1, i64 2562
  %5 = load i64, ptr %4, align 2
  %6 = and i64 %5, 134217728
  %.not20 = icmp eq i64 %6, 0
  br i1 %.not20, label %22, label %7

7:                                                ; preds = %3
  %8 = getelementptr inbounds nuw i8, ptr %1, i64 4712
  %9 = load ptr, ptr %8, align 8, !tbaa !13
  %.not21 = icmp eq ptr %9, null
  br i1 %.not21, label %15, label %10

10:                                               ; preds = %7
  %11 = getelementptr inbounds nuw i8, ptr %9, i64 8
  %12 = load i32, ptr %11, align 8, !tbaa !81
  %13 = icmp sgt i32 %12, 0
  %14 = icmp ne ptr %0, null
  %or.cond = and i1 %14, %13
  br i1 %or.cond, label %16, label %22

15:                                               ; preds = %7
  %.old1.not = icmp eq ptr %0, null
  br i1 %.old1.not, label %22, label %16

16:                                               ; preds = %10, %15
  %17 = load ptr, ptr %0, align 8, !tbaa !83
  %18 = getelementptr inbounds nuw i8, ptr %17, i64 12
  %19 = load i32, ptr %18, align 4, !tbaa !84
  %20 = icmp sgt i32 %19, 0
  br i1 %20, label %21, label %22

21:                                               ; preds = %16
  tail call void (ptr, ptr, ptr, ...) @Curl_trc_cf_infof(ptr noundef nonnull %1, ptr noundef nonnull %0, ptr noundef nonnull @.str.12) #4
  br label %22

22:                                               ; preds = %2, %3, %10, %15, %16, %21
  %23 = getelementptr i8, ptr %0, i64 16
  %.val = load ptr, ptr %23, align 8, !tbaa !4
  %.not.i = icmp eq ptr %.val, null
  br i1 %.not.i, label %cf_hc_reset.exit, label %24

24:                                               ; preds = %22
  %25 = getelementptr inbounds nuw i8, ptr %.val, i64 48
  %26 = load ptr, ptr %25, align 8, !tbaa !86
  %.not.i.i = icmp eq ptr %26, null
  br i1 %.not.i.i, label %cf_hc_baller_reset.exit.i, label %27

27:                                               ; preds = %24
  tail call void @Curl_conn_cf_close(ptr noundef nonnull %26, ptr noundef %1) #4
  tail call void @Curl_conn_cf_discard_chain(ptr noundef nonnull %25, ptr noundef %1) #4
  store ptr null, ptr %25, align 8, !tbaa !86
  br label %cf_hc_baller_reset.exit.i

cf_hc_baller_reset.exit.i:                        ; preds = %27, %24
  %28 = getelementptr inbounds nuw i8, ptr %.val, i64 56
  store i32 0, ptr %28, align 8, !tbaa !88
  %29 = getelementptr inbounds nuw i8, ptr %.val, i64 80
  store i32 -1, ptr %29, align 8, !tbaa !89
  %30 = getelementptr inbounds nuw i8, ptr %.val, i64 96
  %31 = load ptr, ptr %30, align 8, !tbaa !86
  %.not.i12.i = icmp eq ptr %31, null
  br i1 %.not.i12.i, label %cf_hc_baller_reset.exit13.i, label %32

32:                                               ; preds = %cf_hc_baller_reset.exit.i
  tail call void @Curl_conn_cf_close(ptr noundef nonnull %31, ptr noundef %1) #4
  tail call void @Curl_conn_cf_discard_chain(ptr noundef nonnull %30, ptr noundef %1) #4
  store ptr null, ptr %30, align 8, !tbaa !86
  br label %cf_hc_baller_reset.exit13.i

cf_hc_baller_reset.exit13.i:                      ; preds = %32, %cf_hc_baller_reset.exit.i
  %33 = getelementptr inbounds nuw i8, ptr %.val, i64 104
  store i32 0, ptr %33, align 8, !tbaa !88
  %34 = getelementptr inbounds nuw i8, ptr %.val, i64 128
  store i32 -1, ptr %34, align 8, !tbaa !89
  store i32 0, ptr %.val, align 8, !tbaa !90
  %35 = getelementptr inbounds nuw i8, ptr %.val, i64 32
  store i32 0, ptr %35, align 8, !tbaa !92
  %36 = getelementptr inbounds nuw i8, ptr %1, i64 760
  %37 = load i32, ptr %36, align 8, !tbaa !93
  %38 = getelementptr inbounds nuw i8, ptr %.val, i64 140
  store i32 %37, ptr %38, align 4, !tbaa !94
  %39 = lshr i32 %37, 1
  %40 = getelementptr inbounds nuw i8, ptr %.val, i64 136
  store i32 %39, ptr %40, align 8, !tbaa !95
  br label %cf_hc_reset.exit

cf_hc_reset.exit:                                 ; preds = %22, %cf_hc_baller_reset.exit13.i
  %41 = getelementptr inbounds nuw i8, ptr %0, i64 36
  %42 = load i8, ptr %41, align 4
  %43 = and i8 %42, -2
  store i8 %43, ptr %41, align 4
  %44 = getelementptr inbounds nuw i8, ptr %0, i64 8
  %45 = load ptr, ptr %44, align 8, !tbaa !101
  %.not22 = icmp eq ptr %45, null
  br i1 %.not22, label %50, label %46

46:                                               ; preds = %cf_hc_reset.exit
  %47 = load ptr, ptr %45, align 8, !tbaa !83
  %48 = getelementptr inbounds nuw i8, ptr %47, i64 32
  %49 = load ptr, ptr %48, align 8, !tbaa !119
  tail call void %49(ptr noundef nonnull %45, ptr noundef %1) #4
  tail call void @Curl_conn_cf_discard_chain(ptr noundef nonnull %44, ptr noundef %1) #4
  br label %50

50:                                               ; preds = %46, %cf_hc_reset.exit
  ret void
}